; Function Attrs: mustprogress nounwind uwtable
define hidden void @_ZN2cv11AvifEncoderD2Ev(ptr noundef nonnull align 8 dereferenceable(128) %0) unnamed_addr #5 align 2 personality ptr @__gxx_personality_v0 {
  %2 = getelementptr inbounds nuw i8, ptr %0, i64 120
  %3 = load ptr, ptr %2, align 8, !tbaa !150
  %.not = icmp eq ptr %3, null
  br i1 %.not, label %5, label %4

4:                                                ; preds = %1
  invoke void @avifEncoderDestroy(ptr noundef nonnull %3)
          to label %5 unwind label %27

5:                                                ; preds = %4, %1
  store ptr getelementptr inbounds nuw inrange(-16, 88) (i8, ptr @_ZTVN2cv16BaseImageEncoderE, i64 16), ptr %0, align 8, !tbaa !3
  %6 = getelementptr inbounds nuw i8, ptr %0, i64 88
  %7 = load ptr, ptr %6, align 8, !tbaa !60
  %8 = getelementptr inbounds nuw i8, ptr %0, i64 104
  %9 = icmp eq ptr %7, %8
  br i1 %9, label %_ZNKSt7__cxx1112basic_stringIcSt11char_traitsIcESaIcEE11_M_is_localEv.exit.thread.i.i.i, label %_ZNKSt7__cxx1112basic_stringIcSt11char_traitsIcESaIcEE11_M_is_localEv.exit.i.i.i

_ZNKSt7__cxx1112basic_stringIcSt11char_traitsIcESaIcEE11_M_is_localEv.exit.thread.i.i.i: ; preds = %5
  %10 = getelementptr inbounds nuw i8, ptr %0, i64 96
  %11 = load i64, ptr %10, align 8, !tbaa !61
  %12 = icmp ult i64 %11, 16
  tail call void @llvm.assume(i1 %12)
  br label %_ZNSt7__cxx1112basic_stringIcSt11char_traitsIcESaIcEED2Ev.exit.i

_ZNKSt7__cxx1112basic_stringIcSt11char_traitsIcESaIcEE11_M_is_localEv.exit.i.i.i: ; preds = %5
  tail call void @_ZdlPv(ptr noundef %7) #22
  br label %_ZNSt7__cxx1112basic_stringIcSt11char_traitsIcESaIcEED2Ev.exit.i

_ZNSt7__cxx1112basic_stringIcSt11char_traitsIcESaIcEED2Ev.exit.i: ; preds = %_ZNKSt7__cxx1112basic_stringIcSt11char_traitsIcESaIcEE11_M_is_localEv.exit.i.i.i, %_ZNKSt7__cxx1112basic_stringIcSt11char_traitsIcESaIcEE11_M_is_localEv.exit.thread.i.i.i
  %13 = getelementptr inbounds nuw i8, ptr %0, i64 40
  %14 = load ptr, ptr %13, align 8, !tbaa !60
  %15 = getelementptr inbounds nuw i8, ptr %0, i64 56
  %16 = icmp eq ptr %14, %15
  br i1 %16, label %_ZNKSt7__cxx1112basic_stringIcSt11char_traitsIcESaIcEE11_M_is_localEv.exit.thread.i.i2.i, label %_ZNKSt7__cxx1112basic_stringIcSt11char_traitsIcESaIcEE11_M_is_localEv.exit.i.i1.i

_ZNKSt7__cxx1112basic_stringIcSt11char_traitsIcESaIcEE11_M_is_localEv.exit.thread.i.i2.i: ; preds = %_ZNSt7__cxx1112basic_stringIcSt11char_traitsIcESaIcEED2Ev.exit.i
  %17 = getelementptr inbounds nuw i8, ptr %0, i64 48
  %18 = load i64, ptr %17, align 8, !tbaa !61
  %19 = icmp ult i64 %18, 16
  tail call void @llvm.assume(i1 %19)
  br label %_ZNSt7__cxx1112basic_stringIcSt11char_traitsIcESaIcEED2Ev.exit3.i

_ZNKSt7__cxx1112basic_stringIcSt11char_traitsIcESaIcEE11_M_is_localEv.exit.i.i1.i: ; preds = %_ZNSt7__cxx1112basic_stringIcSt11char_traitsIcESaIcEED2Ev.exit.i
  tail call void @_ZdlPv(ptr noundef %14) #22
  br label %_ZNSt7__cxx1112basic_stringIcSt11char_traitsIcESaIcEED2Ev.exit3.i

_ZNSt7__cxx1112basic_stringIcSt11char_traitsIcESaIcEED2Ev.exit3.i: ; preds = %_ZNKSt7__cxx1112basic_stringIcSt11char_traitsIcESaIcEE11_M_is_localEv.exit.i.i1.i, %_ZNKSt7__cxx1112basic_stringIcSt11char_traitsIcESaIcEE11_M_is_localEv.exit.thread.i.i2.i
  %20 = getelementptr inbounds nuw i8, ptr %0, i64 8
  %21 = load ptr, ptr %20, align 8, !tbaa !60
  %22 = getelementptr inbounds nuw i8, ptr %0, i64 24
  %23 = icmp eq ptr %21, %22
  br i1 %23, label %_ZNKSt7__cxx1112basic_stringIcSt11char_traitsIcESaIcEE11_M_is_localEv.exit.thread.i.i5.i, label %_ZNKSt7__cxx1112basic_stringIcSt11char_traitsIcESaIcEE11_M_is_localEv.exit.i.i4.i

_ZNKSt7__cxx1112basic_stringIcSt11char_traitsIcESaIcEE11_M_is_localEv.exit.thread.i.i5.i: ; preds = %_ZNSt7__cxx1112basic_stringIcSt11char_traitsIcESaIcEED2Ev.exit3.i
  %24 = getelementptr inbounds nuw i8, ptr %0, i64 16
  %25 = load i64, ptr %24, align 8, !tbaa !61
  %26 = icmp ult i64 %25, 16
  tail call void @llvm.assume(i1 %26)
  br label %_ZN2cv16BaseImageEncoderD2Ev.exit

_ZNKSt7__cxx1112basic_stringIcSt11char_traitsIcESaIcEE11_M_is_localEv.exit.i.i4.i: ; preds = %_ZNSt7__cxx1112basic_stringIcSt11char_traitsIcESaIcEED2Ev.exit3.i
  tail call void @_ZdlPv(ptr noundef %21) #22
  br label %_ZN2cv16BaseImageEncoderD2Ev.exit

_ZN2cv16BaseImageEncoderD2Ev.exit:                ; preds = %_ZNKSt7__cxx1112basic_stringIcSt11char_traitsIcESaIcEE11_M_is_localEv.exit.thread.i.i5.i, %_ZNKSt7__cxx1112basic_stringIcSt11char_traitsIcESaIcEE11_M_is_localEv.exit.i.i4.i
  ret void

27:                                               ; preds = %4
  %28 = landingpad { ptr, i32 }
          catch ptr null
  %29 = extractvalue { ptr, i32 } %28, 0
  tail call void @__clang_call_terminate(ptr %29) #21
  unreachable
}